target datalayout = "e-m:e-p270:32:32-p271:32:32-p272:64:64-i64:64-i128:128-f80:128-n8:16:32:64-S128"
target triple = "x86_64-pc-linux-gnu"

%struct.pmix_object_t = type { %union.pthread_mutex_t, ptr, i32, %struct.pmix_tma }
%union.pthread_mutex_t = type { %struct.__pthread_mutex_s }
%struct.__pthread_mutex_s = type { i32, i32, i32, i32, i32, i16, i16, %struct.__pthread_internal_list }
%struct.__pthread_internal_list = type { ptr, ptr }
%struct.pmix_tma = type { ptr, ptr, ptr, ptr, ptr, ptr, ptr, ptr }
%struct.timeval = type { i64, i64 }
%struct.pmix_list_t = type { %struct.pmix_object_t, %struct.pmix_list_item_t, i64 }
%struct.pmix_list_item_t = type { %struct.pmix_object_t, ptr, ptr, i32 }
%struct.pmix_iof_flags_t = type { i8, i8, i8, i8, i8, i8, i8, ptr, ptr, i8, i8, i8, i8, i8, i8 }
%struct.pmix_output_desc_t = type { i8, i8, i32, i8, i32, ptr, ptr, i32, ptr, i32, i8, i8, i8, i8, ptr, i32, i32 }
%struct.pmix_class_t = type { ptr, ptr, ptr, ptr, i32, i32, ptr, ptr, i64 }
%struct.event = type { %struct.event_callback, %union.anon.0, i32, ptr, %union.anon.2, i16, i16, %struct.timeval }
%struct.event_callback = type { %struct.anon, i16, i8, i8, %union.anon, ptr }
%struct.anon = type { ptr, ptr }
%union.anon = type { ptr }
%union.anon.0 = type { %struct.anon.1 }
%struct.anon.1 = type { ptr, ptr }
%union.anon.2 = type { %struct.anon.3 }
%struct.anon.3 = type { %struct.anon.4, %struct.timeval }
%struct.anon.4 = type { ptr, ptr }
%struct.pmix_lock_t = type { i32, %struct.pmix_mutex_t, %union.pthread_cond_t, i8 }
%struct.pmix_mutex_t = type { %struct.pmix_object_t, %union.pthread_mutex_t }
%union.pthread_cond_t = type { %struct.__pthread_cond_s }
%struct.__pthread_cond_s = type { %union.__atomic_wide_counter, %union.__atomic_wide_counter, [2 x i32], [2 x i32], i32, i32, [2 x i32] }
%union.__atomic_wide_counter = type { i64 }
%struct.pmix_buffer_t = type { %struct.pmix_object_t, i8, ptr, ptr, ptr, i64, i64 }
%struct.pmix_name_t = type { ptr, i32 }
%struct.pmix_peer_t = type { %struct.pmix_object_t, ptr, ptr, %struct.pmix_proc_type_t, i16, i32, i32, i32, i8, %struct.event, i8, %struct.event, i8, %struct.pmix_list_t, ptr, ptr, i32, %struct.pmix_epilog_t }
%struct.pmix_proc_type_t = type { i32, i8, i8, i8, i8 }
%struct.pmix_epilog_t = type { i32, i32, %struct.pmix_list_t, %struct.pmix_list_t, %struct.pmix_list_t }
%struct.pmix_shift_caddy_t = type { %struct.pmix_object_t, %struct.event, %struct.pmix_lock_t, i32, ptr, i64, i32, %struct.pmix_name_t, ptr, ptr, ptr, i64, ptr, ptr, i64, ptr, i64, ptr, ptr, ptr, ptr, ptr, ptr, i8, %union.anon.10, ptr, i64 }
%union.anon.10 = type { ptr }
%struct.pmix_namespace_t = type { %struct.pmix_list_item_t, ptr, %struct.anon.11, i32, i64, i64, i8, i8, ptr, i64, i64, %struct.pmix_list_t, %struct.pmix_personality_t, %struct.pmix_epilog_t, %struct.pmix_list_t, %struct.pmix_iof_flags_t, %struct.pmix_list_t }
%struct.anon.11 = type { i8, i8, i8 }
%struct.pmix_personality_t = type { i8, ptr, ptr, ptr }
%struct.pmix_bfrops_module_t = type { ptr, ptr, ptr, ptr, ptr, ptr, ptr, ptr, ptr, ptr, ptr, ptr, ptr }

@pmix_output_info = external global [0 x %struct.pmix_output_desc_t], align 8
@pmix_bfrops_base_output = external global i32, align 4
@.str.6 = private unnamed_addr constant [18 x i8] c"common/pmix_log.c\00", align 1
@.str.9 = private unnamed_addr constant [21 x i8] c"pthread_mutex_lock()\00", align 1
@.str.10 = private unnamed_addr constant [34 x i8] c"[%s:%d] UNPACK version %s type %s\00", align 1

; Function Attrs: inlinehint nounwind uwtable
define internal void @pmix_tma_free(ptr noundef %0, ptr noundef %1) #3 {
  %3 = alloca ptr, align 8
  %4 = alloca ptr, align 8
  store ptr %0, ptr %3, align 8, !tbaa !68
  store ptr %1, ptr %4, align 8, !tbaa !79
  %5 = load ptr, ptr %3, align 8, !tbaa !68
  %6 = icmp ne ptr null, %5
  br i1 %6, label %7, label %13

7:                                                ; preds = %2
  %8 = load ptr, ptr %3, align 8, !tbaa !68
  %9 = getelementptr inbounds nuw %struct.pmix_tma, ptr %8, i32 0, i32 5
  %10 = load ptr, ptr %9, align 8, !tbaa !133
  %11 = load ptr, ptr %3, align 8, !tbaa !68
  %12 = load ptr, ptr %4, align 8, !tbaa !79
  call void %10(ptr noundef %11, ptr noundef %12)
  br label %15

13:                                               ; preds = %2
  %14 = load ptr, ptr %4, align 8, !tbaa !79
  call void @free(ptr noundef %14) #11
  br label %15

15:                                               ; preds = %13, %7
  ret void
}

; Function Attrs: inlinehint nounwind uwtable
define internal void @pmix_obj_run_destructors(ptr noundef %0) #3 {
  %2 = alloca ptr, align 8
  %3 = alloca ptr, align 8
  store ptr %0, ptr %2, align 8, !tbaa !66
  call void @llvm.lifetime.start.p0(i64 8, ptr %3) #11
  %4 = load ptr, ptr %2, align 8, !tbaa !66
  %5 = getelementptr inbounds nuw %struct.pmix_object_t, ptr %4, i32 0, i32 1
  %6 = load ptr, ptr %5, align 8, !tbaa !44
  %7 = getelementptr inbounds nuw %struct.pmix_class_t, ptr %6, i32 0, i32 7
  %8 = load ptr, ptr %7, align 8, !tbaa !125
  store ptr %8, ptr %3, align 8, !tbaa !79
  br label %9

9:                                                ; preds = %13, %1
  %10 = load ptr, ptr %3, align 8, !tbaa !79
  %11 = load ptr, ptr %10, align 8, !tbaa !79
  %12 = icmp ne ptr null, %11
  br i1 %12, label %13, label %19

13:                                               ; preds = %9
  %14 = load ptr, ptr %3, align 8, !tbaa !79
  %15 = load ptr, ptr %14, align 8, !tbaa !79
  %16 = load ptr, ptr %2, align 8, !tbaa !66
  call void %15(ptr noundef %16)
  %17 = load ptr, ptr %3, align 8, !tbaa !79
  %18 = getelementptr inbounds nuw ptr, ptr %17, i32 1
  store ptr %18, ptr %3, align 8, !tbaa !79
  br label %9, !llvm.loop !126

19:                                               ; preds = %9
  call void @llvm.lifetime.end.p0(i64 8, ptr %3) #11
  ret void
}

; Function Attrs: alwaysinline nounwind uwtable
define internal i32 @pmix_obj_update(ptr noundef %0, i32 noundef %1) #4 {
  %3 = alloca ptr, align 8
  %4 = alloca i32, align 4
  %5 = alloca i32, align 4
  store ptr %0, ptr %3, align 8, !tbaa !66
  store i32 %1, ptr %4, align 4, !tbaa !41
  call void @llvm.lifetime.start.p0(i64 4, ptr %5) #11
  %6 = load ptr, ptr %3, align 8, !tbaa !66
  %7 = getelementptr inbounds nuw %struct.pmix_object_t, ptr %6, i32 0, i32 0
  %8 = call i32 @pthread_mutex_lock(ptr noundef %7) #11
  store i32 %8, ptr %5, align 4, !tbaa !41
  %9 = load i32, ptr %5, align 4, !tbaa !41
  %10 = icmp eq i32 %9, 35
  br i1 %10, label %11, label %14

11:                                               ; preds = %2
  %12 = load i32, ptr %5, align 4, !tbaa !41
  %13 = call ptr @__errno_location() #13
  store i32 %12, ptr %13, align 4, !tbaa !41
  call void @perror(ptr noundef @.str.9)
  call void @abort() #14
  unreachable

14:                                               ; preds = %2
  %15 = load i32, ptr %4, align 4, !tbaa !41
  %16 = load ptr, ptr %3, align 8, !tbaa !66
  %17 = getelementptr inbounds nuw %struct.pmix_object_t, ptr %16, i32 0, i32 2
  %18 = load i32, ptr %17, align 8, !tbaa !45
  %19 = add nsw i32 %18, %15
  store i32 %19, ptr %17, align 8, !tbaa !45
  store i32 %19, ptr %5, align 4, !tbaa !41
  %20 = load ptr, ptr %3, align 8, !tbaa !66
  %21 = getelementptr inbounds nuw %struct.pmix_object_t, ptr %20, i32 0, i32 0
  %22 = call i32 @pthread_mutex_unlock(ptr noundef %21) #11
  %23 = load i32, ptr %5, align 4, !tbaa !41
  call void @llvm.lifetime.end.p0(i64 4, ptr %5) #11
  ret i32 %23
}

; Function Attrs: nounwind uwtable
define internal void @log_cbfunc(ptr noundef %0, ptr noundef %1, ptr noundef %2, ptr noundef %3) #0 {
  %5 = alloca ptr, align 8
  %6 = alloca ptr, align 8
  %7 = alloca ptr, align 8
  %8 = alloca ptr, align 8
  %9 = alloca ptr, align 8
  %10 = alloca i32, align 4
  %11 = alloca i32, align 4
  %12 = alloca i32, align 4
  %13 = alloca ptr, align 8
  store ptr %0, ptr %5, align 8, !tbaa !110
  store ptr %1, ptr %6, align 8, !tbaa !79
  store ptr %2, ptr %7, align 8, !tbaa !79
  store ptr %3, ptr %8, align 8, !tbaa !79
  call void @llvm.lifetime.start.p0(i64 8, ptr %9) #11
  %14 = load ptr, ptr %8, align 8, !tbaa !79
  store ptr %14, ptr %9, align 8, !tbaa !79
  call void @llvm.lifetime.start.p0(i64 4, ptr %10) #11
  call void @llvm.lifetime.start.p0(i64 4, ptr %11) #11
  call void @llvm.lifetime.start.p0(i64 4, ptr %12) #11
  store i32 1, ptr %10, align 4, !tbaa !41
  br label %15

15:                                               ; preds = %4
  %16 = load i32, ptr @pmix_bfrops_base_output, align 4, !tbaa !41
  %17 = icmp sge i32 %16, 0
  br i1 %17, label %18, label %39

18:                                               ; preds = %15
  %19 = load i32, ptr @pmix_bfrops_base_output, align 4, !tbaa !41
  %20 = icmp slt i32 %19, 64
  br i1 %20, label %21, label %39

21:                                               ; preds = %18
  %22 = load i32, ptr @pmix_bfrops_base_output, align 4, !tbaa !41
  %23 = sext i32 %22 to i64
  %24 = getelementptr inbounds [0 x %struct.pmix_output_desc_t], ptr @pmix_output_info, i64 0, i64 %23
  %25 = getelementptr inbounds nuw %struct.pmix_output_desc_t, ptr %24, i32 0, i32 2
  %26 = load i32, ptr %25, align 4, !tbaa !39
  %27 = icmp sge i32 %26, 2
  br i1 %27, label %28, label %39

28:                                               ; preds = %21
  %29 = load i32, ptr @pmix_bfrops_base_output, align 4, !tbaa !41
  %30 = load ptr, ptr %5, align 8, !tbaa !110
  %31 = getelementptr inbounds nuw %struct.pmix_peer_t, ptr %30, i32 0, i32 1
  %32 = load ptr, ptr %31, align 8, !tbaa !100
  %33 = getelementptr inbounds nuw %struct.pmix_namespace_t, ptr %32, i32 0, i32 12
  %34 = getelementptr inbounds nuw %struct.pmix_personality_t, ptr %33, i32 0, i32 1
  %35 = load ptr, ptr %34, align 8, !tbaa !101
  %36 = getelementptr inbounds nuw %struct.pmix_bfrops_module_t, ptr %35, i32 0, i32 0
  %37 = load ptr, ptr %36, align 8, !tbaa !105
  %38 = call ptr @PMIx_Data_type_string(i16 noundef zeroext 20)
  call void (i32, ptr, ...) @pmix_output(i32 noundef %29, ptr noundef @.str.10, ptr noundef @.str.6, i32 noundef 55, ptr noundef %37, ptr noundef %38)
  br label %39

39:                                               ; preds = %28, %21, %18, %15
  %40 = load ptr, ptr %7, align 8, !tbaa !79
  %41 = getelementptr inbounds nuw %struct.pmix_buffer_t, ptr %40, i32 0, i32 1
  %42 = load i8, ptr %41, align 8, !tbaa !107
  %43 = zext i8 %42 to i32
  %44 = load ptr, ptr %5, align 8, !tbaa !110
  %45 = getelementptr inbounds nuw %struct.pmix_peer_t, ptr %44, i32 0, i32 1
  %46 = load ptr, ptr %45, align 8, !tbaa !100
  %47 = getelementptr inbounds nuw %struct.pmix_namespace_t, ptr %46, i32 0, i32 12
  %48 = getelementptr inbounds nuw %struct.pmix_personality_t, ptr %47, i32 0, i32 0
  %49 = load i8, ptr %48, align 8, !tbaa !108
  %50 = zext i8 %49 to i32
  %51 = icmp eq i32 %43, %50
  br i1 %51, label %52, label %63

52:                                               ; preds = %39
  %53 = load ptr, ptr %5, align 8, !tbaa !110
  %54 = getelementptr inbounds nuw %struct.pmix_peer_t, ptr %53, i32 0, i32 1
  %55 = load ptr, ptr %54, align 8, !tbaa !100
  %56 = getelementptr inbounds nuw %struct.pmix_namespace_t, ptr %55, i32 0, i32 12
  %57 = getelementptr inbounds nuw %struct.pmix_personality_t, ptr %56, i32 0, i32 1
  %58 = load ptr, ptr %57, align 8, !tbaa !101
  %59 = getelementptr inbounds nuw %struct.pmix_bfrops_module_t, ptr %58, i32 0, i32 4
  %60 = load ptr, ptr %59, align 8, !tbaa !134
  %61 = load ptr, ptr %7, align 8, !tbaa !79
  %62 = call i32 %60(ptr noundef %61, ptr noundef %12, ptr noundef %10, i16 noundef zeroext 20)
  store i32 %62, ptr %11, align 4, !tbaa !41
  br label %64

63:                                               ; preds = %39
  store i32 -20, ptr %11, align 4, !tbaa !41
  br label %64

64:                                               ; preds = %63, %52
  br label %65

65:                                               ; preds = %64
  br label %66

66:                                               ; preds = %65
  %67 = load i32, ptr %11, align 4, !tbaa !41
  %68 = icmp ne i32 0, %67
  br i1 %68, label %69, label %71

69:                                               ; preds = %66
  %70 = load i32, ptr %11, align 4, !tbaa !41
  store i32 %70, ptr %12, align 4, !tbaa !41
  br label %71

71:                                               ; preds = %69, %66
  %72 = load ptr, ptr %9, align 8, !tbaa !79
  %73 = getelementptr inbounds nuw %struct.pmix_shift_caddy_t, ptr %72, i32 0, i32 24
  %74 = load ptr, ptr %73, align 8, !tbaa !82
  %75 = icmp ne ptr null, %74
  br i1 %75, label %76, label %84

76:                                               ; preds = %71
  %77 = load ptr, ptr %9, align 8, !tbaa !79
  %78 = getelementptr inbounds nuw %struct.pmix_shift_caddy_t, ptr %77, i32 0, i32 24
  %79 = load ptr, ptr %78, align 8, !tbaa !82
  %80 = load i32, ptr %12, align 4, !tbaa !41
  %81 = load ptr, ptr %9, align 8, !tbaa !79
  %82 = getelementptr inbounds nuw %struct.pmix_shift_caddy_t, ptr %81, i32 0, i32 25
  %83 = load ptr, ptr %82, align 8, !tbaa !93
  call void %79(i32 noundef %80, ptr noundef %83)
  br label %84

84:                                               ; preds = %76, %71
  br label %85

85:                                               ; preds = %84
  call void @llvm.lifetime.start.p0(i64 8, ptr %13) #11
  %86 = load ptr, ptr %9, align 8, !tbaa !79
  store ptr %86, ptr %13, align 8, !tbaa !66
  %87 = load ptr, ptr %13, align 8, !tbaa !66
  %88 = call i32 @pmix_obj_update(ptr noundef %87, i32 noundef -1)
  %89 = icmp eq i32 0, %88
  br i1 %89, label %90, label %104

90:                                               ; preds = %85
  %91 = load ptr, ptr %13, align 8, !tbaa !66
  call void @pmix_obj_run_destructors(ptr noundef %91)
  %92 = load ptr, ptr %13, align 8, !tbaa !66
  %93 = getelementptr inbounds nuw %struct.pmix_object_t, ptr %92, i32 0, i32 3
  %94 = getelementptr inbounds nuw %struct.pmix_tma, ptr %93, i32 0, i32 5
  %95 = load ptr, ptr %94, align 8, !tbaa !75
  %96 = icmp ne ptr null, %95
  br i1 %96, label %97, label %101

97:                                               ; preds = %90
  %98 = load ptr, ptr %13, align 8, !tbaa !66
  %99 = getelementptr inbounds nuw %struct.pmix_object_t, ptr %98, i32 0, i32 3
  %100 = load ptr, ptr %9, align 8, !tbaa !79
  call void @pmix_tma_free(ptr noundef %99, ptr noundef %100)
  br label %103

101:                                              ; preds = %90
  %102 = load ptr, ptr %9, align 8, !tbaa !79
  call void @free(ptr noundef %102) #11
  br label %103

103:                                              ; preds = %101, %97
  store ptr null, ptr %9, align 8, !tbaa !79
  br label %104

104:                                              ; preds = %103, %85
  call void @llvm.lifetime.end.p0(i64 8, ptr %13) #11
  br label %105

105:                                              ; preds = %104
  br label %106

106:                                              ; preds = %105
  call void @llvm.lifetime.end.p0(i64 4, ptr %12) #11
  call void @llvm.lifetime.end.p0(i64 4, ptr %11) #11
  call void @llvm.lifetime.end.p0(i64 4, ptr %10) #11
  call void @llvm.lifetime.end.p0(i64 8, ptr %9) #11
  ret void
}