; Function Attrs: nounwind uwtable
define internal void @log_cbfunc(ptr noundef readonly captures(none) %0, ptr readnone captures(none) %1, ptr noundef %2, ptr noundef %3) #0 {
  %5 = alloca i32, align 4
  %6 = alloca i32, align 4
  call void @llvm.lifetime.start.p0(i64 4, ptr nonnull %5) #12
  call void @llvm.lifetime.start.p0(i64 4, ptr nonnull %6) #12
  store i32 1, ptr %5, align 4, !tbaa !38
  %7 = load i32, ptr @pmix_bfrops_base_output, align 4, !tbaa !38
  %or.cond = icmp ult i32 %7, 64
  br i1 %or.cond, label %8, label %20

8:                                                ; preds = %4
  %9 = zext nneg i32 %7 to i64
  %10 = getelementptr inbounds nuw [0 x %struct.pmix_output_desc_t], ptr @pmix_output_info, i64 0, i64 %9, i32 2
  %11 = load i32, ptr %10, align 4, !tbaa !36
  %12 = icmp sgt i32 %11, 1
  br i1 %12, label %13, label %20

13:                                               ; preds = %8
  %14 = getelementptr inbounds nuw i8, ptr %0, i64 120
  %15 = load ptr, ptr %14, align 8, !tbaa !88
  %16 = getelementptr inbounds nuw i8, ptr %15, i64 488
  %17 = load ptr, ptr %16, align 8, !tbaa !89
  %18 = load ptr, ptr %17, align 8, !tbaa !93
  %19 = tail call ptr @PMIx_Data_type_string(i16 noundef zeroext 20) #12
  tail call void (i32, ptr, ...) @pmix_output(i32 noundef %7, ptr noundef nonnull @.str.10, ptr noundef nonnull @.str.6, i32 noundef 55, ptr noundef %18, ptr noundef %19) #12
  br label %20

20:                                               ; preds = %13, %8, %4
  %21 = getelementptr inbounds nuw i8, ptr %2, i64 120
  %22 = load i8, ptr %21, align 8, !tbaa !95
  %23 = getelementptr inbounds nuw i8, ptr %0, i64 120
  %24 = load ptr, ptr %23, align 8, !tbaa !88
  %25 = getelementptr inbounds nuw i8, ptr %24, i64 480
  %26 = load i8, ptr %25, align 8, !tbaa !96
  %27 = icmp eq i8 %22, %26
  br i1 %27, label %28, label %.thread

28:                                               ; preds = %20
  %29 = getelementptr inbounds nuw i8, ptr %24, i64 488
  %30 = load ptr, ptr %29, align 8, !tbaa !89
  %31 = getelementptr inbounds nuw i8, ptr %30, i64 32
  %32 = load ptr, ptr %31, align 8, !tbaa !114
  %33 = call i32 %32(ptr noundef nonnull %2, ptr noundef nonnull %6, ptr noundef nonnull %5, i16 noundef zeroext 20) #12
  %.not = icmp eq i32 %33, 0
  br i1 %.not, label %34, label %.thread

.thread:                                          ; preds = %20, %28
  %.025 = phi i32 [ %33, %28 ], [ -20, %20 ]
  store i32 %.025, ptr %6, align 4, !tbaa !38
  br label %34

34:                                               ; preds = %.thread, %28
  %35 = getelementptr inbounds nuw i8, ptr %3, i64 648
  %36 = load ptr, ptr %35, align 8, !tbaa !70
  %.not20 = icmp eq ptr %36, null
  br i1 %.not20, label %41, label %37

37:                                               ; preds = %34
  %38 = load i32, ptr %6, align 4, !tbaa !38
  %39 = getelementptr inbounds nuw i8, ptr %3, i64 656
  %40 = load ptr, ptr %39, align 8, !tbaa !81
  call void %36(i32 noundef %38, ptr noundef %40) #12
  br label %41

41:                                               ; preds = %34, %37
  %42 = call i32 @pthread_mutex_lock(ptr noundef nonnull %3) #12
  %43 = icmp eq i32 %42, 35
  br i1 %43, label %44, label %pmix_obj_update.exit

44:                                               ; preds = %41
  %45 = tail call ptr @__errno_location() #15
  store i32 35, ptr %45, align 4, !tbaa !38
  call void @perror(ptr noundef nonnull @.str.9) #16
  call void @abort() #17
  unreachable

pmix_obj_update.exit:                             ; preds = %41
  %46 = getelementptr inbounds nuw i8, ptr %3, i64 48
  %47 = load i32, ptr %46, align 8, !tbaa !42
  %48 = add nsw i32 %47, -1
  store i32 %48, ptr %46, align 8, !tbaa !42
  %49 = call i32 @pthread_mutex_unlock(ptr noundef nonnull %3) #12
  %50 = icmp eq i32 %48, 0
  br i1 %50, label %51, label %65

51:                                               ; preds = %pmix_obj_update.exit
  %52 = getelementptr inbounds nuw i8, ptr %3, i64 40
  %53 = load ptr, ptr %52, align 8, !tbaa !41
  %54 = getelementptr inbounds nuw i8, ptr %53, i64 48
  %55 = load ptr, ptr %54, align 8, !tbaa !67
  %56 = load ptr, ptr %55, align 8, !tbaa !44
  %.not6.i = icmp eq ptr %56, null
  br i1 %.not6.i, label %pmix_obj_run_destructors.exit, label %.lr.ph.i

.lr.ph.i:                                         ; preds = %51, %.lr.ph.i
  %57 = phi ptr [ %59, %.lr.ph.i ], [ %56, %51 ]
  %.07.i = phi ptr [ %58, %.lr.ph.i ], [ %55, %51 ]
  call void %57(ptr noundef nonnull %3) #12
  %58 = getelementptr inbounds nuw i8, ptr %.07.i, i64 8
  %59 = load ptr, ptr %58, align 8, !tbaa !44
  %.not.i = icmp eq ptr %59, null
  br i1 %.not.i, label %pmix_obj_run_destructors.exit, label %.lr.ph.i, !llvm.loop !68

pmix_obj_run_destructors.exit:                    ; preds = %.lr.ph.i, %51
  %60 = getelementptr inbounds nuw i8, ptr %3, i64 96
  %61 = load ptr, ptr %60, align 8, !tbaa !98
  %.not21 = icmp eq ptr %61, null
  br i1 %.not21, label %64, label %62

62:                                               ; preds = %pmix_obj_run_destructors.exit
  %63 = getelementptr inbounds nuw i8, ptr %3, i64 56
  call void %61(ptr noundef nonnull %63, ptr noundef nonnull %3) #12
  br label %65

64:                                               ; preds = %pmix_obj_run_destructors.exit
  call void @free(ptr noundef nonnull %3) #12
  br label %65

65:                                               ; preds = %62, %64, %pmix_obj_update.exit
  call void @llvm.lifetime.end.p0(i64 4, ptr nonnull %6) #12
  call void @llvm.lifetime.end.p0(i64 4, ptr nonnull %5) #12
  ret void
}